target datalayout = "e-m:e-p270:32:32-p271:32:32-p272:64:64-i64:64-i128:128-f80:128-n8:16:32:64-S128"
target triple = "x86_64-pc-linux-gnu"

%struct.prov_cipher_ctx_st = type { [16 x i8], [16 x i8], [16 x i8], ptr, %union.anon, i32, i64, i64, i64, i64, i32, i8, i32, ptr, i32, i64, i32, i64, i32, ptr, ptr, ptr }
%union.anon = type { ptr }

@.str.1 = private unnamed_addr constant [60 x i8] c"../openssl/providers/implementations/ciphers/ciphercommon.c\00", align 1
@__func__.ossl_cipher_generic_stream_final = private unnamed_addr constant [33 x i8] c"ossl_cipher_generic_stream_final\00", align 1

; Function Attrs: nounwind uwtable
define i32 @ossl_cipher_generic_stream_final(ptr noundef %0, ptr noundef %1, ptr noundef %2, i64 noundef %3) #0 {
  %5 = alloca i32, align 4
  %6 = alloca ptr, align 8
  %7 = alloca ptr, align 8
  %8 = alloca ptr, align 8
  %9 = alloca i64, align 8
  %10 = alloca ptr, align 8
  %11 = alloca i32, align 4
  store ptr %0, ptr %6, align 8, !tbaa !3
  store ptr %1, ptr %7, align 8, !tbaa !25
  store ptr %2, ptr %8, align 8, !tbaa !37
  store i64 %3, ptr %9, align 8, !tbaa !11
  call void @llvm.lifetime.start.p0(i64 8, ptr %10) #7
  %12 = load ptr, ptr %6, align 8, !tbaa !3
  store ptr %12, ptr %10, align 8, !tbaa !13
  %13 = call i32 @ossl_prov_is_running()
  %14 = icmp ne i32 %13, 0
  br i1 %14, label %16, label %15

15:                                               ; preds = %4
  store i32 0, ptr %5, align 4
  store i32 1, ptr %11, align 4
  br label %27

16:                                               ; preds = %4
  %17 = load ptr, ptr %10, align 8, !tbaa !13
  %18 = getelementptr inbounds nuw %struct.prov_cipher_ctx_st, ptr %17, i32 0, i32 11
  %19 = load i8, ptr %18, align 4
  %20 = lshr i8 %19, 3
  %21 = and i8 %20, 1
  %22 = zext i8 %21 to i32
  %23 = icmp ne i32 %22, 0
  br i1 %23, label %25, label %24

24:                                               ; preds = %16
  call void @ERR_new()
  call void @ERR_set_debug(ptr noundef @.str.1, i32 noundef 563, ptr noundef @__func__.ossl_cipher_generic_stream_final)
  call void (i32, i32, ptr, ...) @ERR_set_error(i32 noundef 57, i32 noundef 114, ptr noundef null)
  store i32 0, ptr %5, align 4
  store i32 1, ptr %11, align 4
  br label %27

25:                                               ; preds = %16
  %26 = load ptr, ptr %8, align 8, !tbaa !37
  store i64 0, ptr %26, align 8, !tbaa !11
  store i32 1, ptr %5, align 4
  store i32 1, ptr %11, align 4
  br label %27

27:                                               ; preds = %25, %24, %15
  call void @llvm.lifetime.end.p0(i64 8, ptr %10) #7
  %28 = load i32, ptr %5, align 4
  ret i32 %28
}