; Function Attrs: nounwind uwtable
define range(i32 0, 2) i32 @ossl_cipher_generic_stream_final(ptr noundef readonly captures(none) %0, ptr noundef readnone captures(none) %1, ptr noundef writeonly captures(none) %2, i64 noundef %3) local_unnamed_addr #1 {
  %5 = tail call i32 @ossl_prov_is_running() #6
  %.not = icmp eq i32 %5, 0
  br i1 %.not, label %12, label %6

6:                                                ; preds = %4
  %7 = getelementptr inbounds nuw i8, ptr %0, i64 108
  %8 = load i8, ptr %7, align 4
  %9 = and i8 %8, 8
  %.not3 = icmp eq i8 %9, 0
  br i1 %.not3, label %10, label %11

10:                                               ; preds = %6
  tail call void @ERR_new() #6
  tail call void @ERR_set_debug(ptr noundef nonnull @.str.1, i32 noundef 563, ptr noundef nonnull @__func__.ossl_cipher_generic_stream_final) #6
  tail call void (i32, i32, ptr, ...) @ERR_set_error(i32 noundef 57, i32 noundef 114, ptr noundef null) #6
  br label %12

11:                                               ; preds = %6
  store i64 0, ptr %2, align 8, !tbaa !15
  br label %12

12:                                               ; preds = %4, %11, %10
  %.0 = phi i32 [ 1, %11 ], [ 0, %10 ], [ 0, %4 ]
  ret i32 %.0
}